; Function Attrs: nounwind uwtable
define noalias nonnull ptr @l_Lean_isTracingEnabledFor___at___private_Lean_Meta_DecLevel_0__Lean_Meta_decAux_x3f___spec__1(ptr noundef %0, i8 noundef zeroext %1, ptr noundef readnone captures(none) %2, ptr noundef readnone captures(none) %3, ptr noundef readonly captures(none) %4, ptr noundef readnone captures(none) %5, ptr noundef %6) local_unnamed_addr #0 {
  %8 = getelementptr inbounds nuw i8, ptr %4, i64 104
  %9 = load ptr, ptr %8, align 8, !tbaa !4
  %10 = getelementptr inbounds nuw i8, ptr %4, i64 24
  %11 = load ptr, ptr %10, align 8, !tbaa !4
  %12 = tail call zeroext i8 @l_Lean_checkTraceOption(ptr noundef %9, ptr noundef %11, ptr noundef %0) #4
  tail call void @lean_inc_heartbeat() #4
  %13 = tail call noalias ptr @mi_malloc_small(i64 noundef 24) #4
  %14 = icmp eq ptr %13, null
  br i1 %14, label %15, label %lean_alloc_ctor.exit

15:                                               ; preds = %7
  tail call void @lean_internal_panic_out_of_memory() #5
  unreachable

lean_alloc_ctor.exit:                             ; preds = %7
  %16 = zext i8 %12 to i64
  %17 = shl nuw nsw i64 %16, 1
  %18 = or disjoint i64 %17, 1
  %19 = inttoptr i64 %18 to ptr
  %20 = getelementptr inbounds nuw i8, ptr %13, i64 4
  store i32 1, ptr %13, align 4, !tbaa !8
  store i32 131096, ptr %20, align 4
  %21 = getelementptr inbounds nuw i8, ptr %13, i64 8
  store ptr %19, ptr %21, align 8, !tbaa !4
  %22 = getelementptr inbounds nuw i8, ptr %13, i64 16
  store ptr %6, ptr %22, align 8, !tbaa !4
  ret ptr %13
}